; Function Attrs: inlinehint mustprogress nofree nounwind willreturn memory(read, inaccessiblemem: none) uwtable
define internal fastcc ptr @hwloc_obj_get_info_by_name(ptr noundef readonly captures(none) %0, ptr noundef readonly captures(none) %1) unnamed_addr #11 {
  %3 = getelementptr inbounds nuw i8, ptr %0, i64 224
  %4 = load i32, ptr %3, align 8, !tbaa !50
  %.not.i = icmp eq i32 %4, 0
  br i1 %.not.i, label %hwloc_get_info_by_name.exit, label %.lr.ph.i

.lr.ph.i:                                         ; preds = %2
  %5 = getelementptr inbounds nuw i8, ptr %0, i64 216
  %6 = load ptr, ptr %5, align 8, !tbaa !51
  %wide.trip.count.i = zext i32 %4 to i64
  br label %8

7:                                                ; preds = %8
  %indvars.iv.next.i = add nuw nsw i64 %indvars.iv.i, 1
  %exitcond.not.i = icmp eq i64 %indvars.iv.next.i, %wide.trip.count.i
  br i1 %exitcond.not.i, label %hwloc_get_info_by_name.exit, label %8, !llvm.loop !52

8:                                                ; preds = %7, %.lr.ph.i
  %indvars.iv.i = phi i64 [ 0, %.lr.ph.i ], [ %indvars.iv.next.i, %7 ]
  %9 = getelementptr inbounds nuw %struct.hwloc_info_s, ptr %6, i64 %indvars.iv.i
  %10 = load ptr, ptr %9, align 8, !tbaa !53
  %11 = tail call i32 @strcmp(ptr noundef nonnull dereferenceable(1) %10, ptr noundef nonnull readonly dereferenceable(1) %1) #24
  %.not.not.i = icmp eq i32 %11, 0
  br i1 %.not.not.i, label %.thread.i, label %7

.thread.i:                                        ; preds = %8
  %12 = getelementptr inbounds nuw i8, ptr %9, i64 8
  %13 = load ptr, ptr %12, align 8, !tbaa !55
  br label %hwloc_get_info_by_name.exit

hwloc_get_info_by_name.exit:                      ; preds = %7, %2, %.thread.i
  %.2.i = phi ptr [ %13, %.thread.i ], [ null, %2 ], [ null, %7 ]
  ret ptr %.2.i
}